target datalayout = "e-m:e-p270:32:32-p271:32:32-p272:64:64-i64:64-i128:128-f80:128-n8:16:32:64-S128"
target triple = "x86_64-pc-linux-gnu"

; Function Attrs: nounwind uwtable
define internal void @put_pixels16x16_c(ptr noundef %0, ptr noundef %1, i64 noundef %2, i32 noundef %3) #1 {
  %5 = alloca ptr, align 8
  %6 = alloca ptr, align 8
  %7 = alloca i64, align 8
  %8 = alloca i32, align 4
  %9 = alloca i32, align 4
  store ptr %0, ptr %5, align 8, !tbaa !45
  store ptr %1, ptr %6, align 8, !tbaa !45
  store i64 %2, ptr %7, align 8, !tbaa !47
  store i32 %3, ptr %8, align 4, !tbaa !38
  call void @llvm.lifetime.start.p0(i64 4, ptr %9) #7
  store i32 0, ptr %9, align 4, !tbaa !38
  br label %10

10:                                               ; preds = %38, %4
  %11 = load i32, ptr %9, align 4, !tbaa !38
  %12 = icmp slt i32 %11, 16
  br i1 %12, label %13, label %41

13:                                               ; preds = %10
  %14 = load ptr, ptr %6, align 8, !tbaa !45
  %15 = load i32, ptr %14, align 1, !tbaa !50
  %16 = load ptr, ptr %5, align 8, !tbaa !45
  store i32 %15, ptr %16, align 4, !tbaa !38
  %17 = load ptr, ptr %6, align 8, !tbaa !45
  %18 = getelementptr inbounds i8, ptr %17, i64 4
  %19 = load i32, ptr %18, align 1, !tbaa !50
  %20 = load ptr, ptr %5, align 8, !tbaa !45
  %21 = getelementptr inbounds i8, ptr %20, i64 4
  store i32 %19, ptr %21, align 4, !tbaa !38
  %22 = load ptr, ptr %6, align 8, !tbaa !45
  %23 = getelementptr inbounds i8, ptr %22, i64 8
  %24 = load i32, ptr %23, align 1, !tbaa !50
  %25 = load ptr, ptr %5, align 8, !tbaa !45
  %26 = getelementptr inbounds i8, ptr %25, i64 8
  store i32 %24, ptr %26, align 4, !tbaa !38
  %27 = load ptr, ptr %6, align 8, !tbaa !45
  %28 = getelementptr inbounds i8, ptr %27, i64 12
  %29 = load i32, ptr %28, align 1, !tbaa !50
  %30 = load ptr, ptr %5, align 8, !tbaa !45
  %31 = getelementptr inbounds i8, ptr %30, i64 12
  store i32 %29, ptr %31, align 4, !tbaa !38
  %32 = load i64, ptr %7, align 8, !tbaa !47
  %33 = load ptr, ptr %6, align 8, !tbaa !45
  %34 = getelementptr inbounds i8, ptr %33, i64 %32
  store ptr %34, ptr %6, align 8, !tbaa !45
  %35 = load i64, ptr %7, align 8, !tbaa !47
  %36 = load ptr, ptr %5, align 8, !tbaa !45
  %37 = getelementptr inbounds i8, ptr %36, i64 %35
  store ptr %37, ptr %5, align 8, !tbaa !45
  br label %38

38:                                               ; preds = %13
  %39 = load i32, ptr %9, align 4, !tbaa !38
  %40 = add nsw i32 %39, 1
  store i32 %40, ptr %9, align 4, !tbaa !38
  br label %10, !llvm.loop !64

41:                                               ; preds = %10
  call void @llvm.lifetime.end.p0(i64 4, ptr %9) #7
  ret void
}