; Function Attrs: nofree norecurse nosync nounwind memory(argmem: readwrite) uwtable
define internal void @put_pixels16x16_c(ptr noundef writeonly captures(none) %0, ptr noundef readonly captures(none) %1, i64 noundef %2, i32 %3) #1 {
  br label %5

5:                                                ; preds = %4, %5
  %.017 = phi i32 [ 0, %4 ], [ %18, %5 ]
  %.01316 = phi ptr [ %0, %4 ], [ %17, %5 ]
  %.01415 = phi ptr [ %1, %4 ], [ %16, %5 ]
  %6 = load i32, ptr %.01415, align 1, !tbaa !40
  store i32 %6, ptr %.01316, align 4, !tbaa !54
  %7 = getelementptr inbounds nuw i8, ptr %.01415, i64 4
  %8 = load i32, ptr %7, align 1, !tbaa !40
  %9 = getelementptr inbounds nuw i8, ptr %.01316, i64 4
  store i32 %8, ptr %9, align 4, !tbaa !54
  %10 = getelementptr inbounds nuw i8, ptr %.01415, i64 8
  %11 = load i32, ptr %10, align 1, !tbaa !40
  %12 = getelementptr inbounds nuw i8, ptr %.01316, i64 8
  store i32 %11, ptr %12, align 4, !tbaa !54
  %13 = getelementptr inbounds nuw i8, ptr %.01415, i64 12
  %14 = load i32, ptr %13, align 1, !tbaa !40
  %15 = getelementptr inbounds nuw i8, ptr %.01316, i64 12
  store i32 %14, ptr %15, align 4, !tbaa !54
  %16 = getelementptr inbounds i8, ptr %.01415, i64 %2
  %17 = getelementptr inbounds i8, ptr %.01316, i64 %2
  %18 = add nuw nsw i32 %.017, 1
  %exitcond.not = icmp eq i32 %18, 16
  br i1 %exitcond.not, label %19, label %5, !llvm.loop !56

19:                                               ; preds = %5
  ret void
}